target datalayout = "e-m:e-p270:32:32-p271:32:32-p272:64:64-i64:64-i128:128-f80:128-n8:16:32:64-S128"
target triple = "x86_64-pc-linux-gnu"

@.str.95 = private unnamed_addr constant [13 x i8] c"kdsp.cpt.dlt\00", align 1
@proto_register_kdsp.ett = internal global [9 x ptr] [ptr @ett_kdsp_pdu, ptr @ett_cpt_bitmap, ptr @ett_cpt_data_content_bitmap, ptr @ett_ch_bitmap, ptr @ett_ch_data, ptr @ett_sub_fcs, ptr @ett_sub_radio, ptr @ett_sub_gps, ptr @ett_sub_cpt], align 16
@.str.175 = private unnamed_addr constant [29 x i8] c"Kismet Drone/Server Protocol\00", align 1
@.str.176 = private unnamed_addr constant [5 x i8] c"KDSP\00", align 1
@.str.177 = private unnamed_addr constant [5 x i8] c"kdsp\00", align 1
@proto_kdsp = internal global i32 0, align 4
@.str.178 = private unnamed_addr constant [14 x i8] c"KDSP DLT Type\00", align 1
@subdissector_dlt_table = internal global ptr null, align 8
@kdsp_handle = internal global ptr null, align 8

; Function Attrs: null_pointer_is_valid sspstrong uwtable
define hidden void @proto_register_kdsp() #0 {
  %1 = alloca ptr, align 8
  call void @llvm.lifetime.start.p0(i64 8, ptr %1) #3
  %2 = call i32 @proto_register_protocol(ptr noundef @.str.175, ptr noundef @.str.176, ptr noundef @.str.177)
  store i32 %2, ptr @proto_kdsp, align 4
  %3 = load i32, ptr @proto_kdsp, align 4
  call void @proto_register_field_array(i32 noundef %3, ptr noundef @proto_register_kdsp.hf, i32 noundef 92)
  call void @proto_register_subtree_array(ptr noundef @proto_register_kdsp.ett, i32 noundef 9)
  %4 = load i32, ptr @proto_kdsp, align 4
  %5 = call ptr @expert_register_protocol(i32 noundef %4)
  store ptr %5, ptr %1, align 8
  %6 = load ptr, ptr %1, align 8
  call void @expert_register_field_array(ptr noundef %6, ptr noundef @proto_register_kdsp.ei, i32 noundef 4)
  %7 = load i32, ptr @proto_kdsp, align 4
  %8 = call ptr @register_dissector_table(ptr noundef @.str.95, ptr noundef @.str.178, i32 noundef %7, i32 noundef 7, i32 noundef 1)
  store ptr %8, ptr @subdissector_dlt_table, align 8
  %9 = load i32, ptr @proto_kdsp, align 4
  %10 = call ptr @register_dissector(ptr noundef @.str.177, ptr noundef @dissect_kdsp, i32 noundef %9)
  store ptr %10, ptr @kdsp_handle, align 8
  call void @llvm.lifetime.end.p0(i64 8, ptr %1) #3
  ret void
}