; Function Attrs: null_pointer_is_valid sspstrong uwtable
define hidden void @proto_register_kdsp() local_unnamed_addr #0 {
  %1 = tail call i32 @proto_register_protocol(ptr noundef nonnull @.str.175, ptr noundef nonnull @.str.176, ptr noundef nonnull @.str.177)
  store i32 %1, ptr @proto_kdsp, align 4
  tail call void @proto_register_field_array(i32 noundef %1, ptr noundef nonnull @proto_register_kdsp.hf, i32 noundef 92)
  tail call void @proto_register_subtree_array(ptr noundef nonnull @proto_register_kdsp.ett, i32 noundef 9)
  %2 = load i32, ptr @proto_kdsp, align 4
  %3 = tail call ptr @expert_register_protocol(i32 noundef %2)
  tail call void @expert_register_field_array(ptr noundef %3, ptr noundef nonnull @proto_register_kdsp.ei, i32 noundef 4)
  %4 = load i32, ptr @proto_kdsp, align 4
  %5 = tail call ptr @register_dissector_table(ptr noundef nonnull @.str.95, ptr noundef nonnull @.str.178, i32 noundef %4, i32 noundef 7, i32 noundef 1)
  store ptr %5, ptr @subdissector_dlt_table, align 8
  %6 = load i32, ptr @proto_kdsp, align 4
  %7 = tail call ptr @register_dissector(ptr noundef nonnull @.str.177, ptr noundef nonnull @dissect_kdsp, i32 noundef %6)
  store ptr %7, ptr @kdsp_handle, align 8
  ret void
}